target datalayout = "e-m:e-p270:32:32-p271:32:32-p272:64:64-i64:64-i128:128-f80:128-n8:16:32:64-S128"
target triple = "x86_64-pc-linux-gnu"

; Function Attrs: nounwind sspstrong uwtable
define internal i64 @fun_so_from_gb18030(ptr noundef %0, ptr noundef %1, i64 noundef %2, ptr noundef %3, i64 noundef %4) #0 {
  %6 = alloca ptr, align 8
  %7 = alloca ptr, align 8
  %8 = alloca i64, align 8
  %9 = alloca ptr, align 8
  %10 = alloca i64, align 8
  %11 = alloca i32, align 4
  store ptr %0, ptr %6, align 8, !tbaa !6
  store ptr %1, ptr %7, align 8, !tbaa !10
  store i64 %2, ptr %8, align 8, !tbaa !12
  store ptr %3, ptr %9, align 8, !tbaa !10
  store i64 %4, ptr %10, align 8, !tbaa !12
  call void @llvm.lifetime.start.p0(i64 4, ptr %11) #3
  %12 = load ptr, ptr %7, align 8, !tbaa !10
  %13 = getelementptr inbounds i8, ptr %12, i64 0
  %14 = load i8, ptr %13, align 1, !tbaa !14
  %15 = zext i8 %14 to i32
  %16 = sub nsw i32 %15, 144
  %17 = mul nsw i32 %16, 10
  %18 = mul nsw i32 %17, 126
  %19 = mul nsw i32 %18, 10
  %20 = load ptr, ptr %7, align 8, !tbaa !10
  %21 = getelementptr inbounds i8, ptr %20, i64 1
  %22 = load i8, ptr %21, align 1, !tbaa !14
  %23 = zext i8 %22 to i32
  %24 = sub nsw i32 %23, 48
  %25 = mul nsw i32 %24, 126
  %26 = mul nsw i32 %25, 10
  %27 = add nsw i32 %19, %26
  %28 = load ptr, ptr %7, align 8, !tbaa !10
  %29 = getelementptr inbounds i8, ptr %28, i64 2
  %30 = load i8, ptr %29, align 1, !tbaa !14
  %31 = zext i8 %30 to i32
  %32 = sub nsw i32 %31, 129
  %33 = mul nsw i32 %32, 10
  %34 = add nsw i32 %27, %33
  %35 = load ptr, ptr %7, align 8, !tbaa !10
  %36 = getelementptr inbounds i8, ptr %35, i64 3
  %37 = load i8, ptr %36, align 1, !tbaa !14
  %38 = zext i8 %37 to i32
  %39 = sub nsw i32 %38, 48
  %40 = add nsw i32 %34, %39
  %41 = add nsw i32 %40, 65536
  store i32 %41, ptr %11, align 4, !tbaa !15
  %42 = load i32, ptr %11, align 4, !tbaa !15
  %43 = lshr i32 %42, 18
  %44 = or i32 240, %43
  %45 = trunc i32 %44 to i8
  %46 = load ptr, ptr %9, align 8, !tbaa !10
  %47 = getelementptr inbounds i8, ptr %46, i64 0
  store i8 %45, ptr %47, align 1, !tbaa !14
  %48 = load i32, ptr %11, align 4, !tbaa !15
  %49 = lshr i32 %48, 12
  %50 = and i32 %49, 63
  %51 = or i32 128, %50
  %52 = trunc i32 %51 to i8
  %53 = load ptr, ptr %9, align 8, !tbaa !10
  %54 = getelementptr inbounds i8, ptr %53, i64 1
  store i8 %52, ptr %54, align 1, !tbaa !14
  %55 = load i32, ptr %11, align 4, !tbaa !15
  %56 = lshr i32 %55, 6
  %57 = and i32 %56, 63
  %58 = or i32 128, %57
  %59 = trunc i32 %58 to i8
  %60 = load ptr, ptr %9, align 8, !tbaa !10
  %61 = getelementptr inbounds i8, ptr %60, i64 2
  store i8 %59, ptr %61, align 1, !tbaa !14
  %62 = load i32, ptr %11, align 4, !tbaa !15
  %63 = and i32 %62, 63
  %64 = or i32 128, %63
  %65 = trunc i32 %64 to i8
  %66 = load ptr, ptr %9, align 8, !tbaa !10
  %67 = getelementptr inbounds i8, ptr %66, i64 3
  store i8 %65, ptr %67, align 1, !tbaa !14
  call void @llvm.lifetime.end.p0(i64 4, ptr %11) #3
  ret i64 4
}