; Function Attrs: mustprogress nofree norecurse nosync nounwind sspstrong willreturn memory(argmem: readwrite) uwtable
define internal noundef i64 @fun_so_from_gb18030(ptr readnone captures(none) %0, ptr noundef readonly captures(none) %1, i64 %2, ptr noundef writeonly captures(none) initializes((0, 4)) %3, i64 %4) #2 {
  %6 = load i8, ptr %1, align 1, !tbaa !6
  %7 = zext i8 %6 to i32
  %8 = mul nuw nsw i32 %7, 12600
  %9 = getelementptr inbounds nuw i8, ptr %1, i64 1
  %10 = load i8, ptr %9, align 1, !tbaa !6
  %11 = zext i8 %10 to i32
  %12 = mul nuw nsw i32 %11, 1260
  %13 = getelementptr inbounds nuw i8, ptr %1, i64 2
  %14 = load i8, ptr %13, align 1, !tbaa !6
  %15 = zext i8 %14 to i32
  %16 = mul nuw nsw i32 %15, 10
  %17 = getelementptr inbounds nuw i8, ptr %1, i64 3
  %18 = load i8, ptr %17, align 1, !tbaa !6
  %19 = zext i8 %18 to i32
  %20 = add nsw i32 %8, -1810682
  %21 = add nsw i32 %20, %12
  %22 = add nsw i32 %21, %16
  %23 = add nsw i32 %22, %19
  %24 = lshr i32 %23, 18
  %25 = trunc i32 %24 to i8
  %26 = or i8 %25, -16
  store i8 %26, ptr %3, align 1, !tbaa !6
  %27 = lshr i32 %23, 12
  %28 = trunc i32 %27 to i8
  %29 = and i8 %28, 63
  %30 = or disjoint i8 %29, -128
  %31 = getelementptr inbounds nuw i8, ptr %3, i64 1
  store i8 %30, ptr %31, align 1, !tbaa !6
  %32 = lshr i32 %23, 6
  %33 = trunc i32 %32 to i8
  %34 = and i8 %33, 63
  %35 = or disjoint i8 %34, -128
  %36 = getelementptr inbounds nuw i8, ptr %3, i64 2
  store i8 %35, ptr %36, align 1, !tbaa !6
  %37 = trunc i32 %23 to i8
  %38 = and i8 %37, 63
  %39 = or disjoint i8 %38, -128
  %40 = getelementptr inbounds nuw i8, ptr %3, i64 3
  store i8 %39, ptr %40, align 1, !tbaa !6
  ret i64 4
}